; Function Attrs: mustprogress uwtable
define dso_local noundef zeroext i1 @_ZNK17ExpressionFuncall11visit_factsERSt6vectorIPK4FactSaIS3_EER9CGContext(ptr nocapture noundef nonnull readonly align 8 dereferenceable(32) %0, ptr noundef nonnull align 8 dereferenceable(24) %1, ptr noundef nonnull align 8 dereferenceable(216) %2) unnamed_addr #3 align 2 {
  %4 = getelementptr inbounds i8, ptr %0, i64 24
  %5 = load ptr, ptr %4, align 8
  %6 = load ptr, ptr %5, align 8
  %7 = getelementptr inbounds i8, ptr %6, i64 24
  %8 = load ptr, ptr %7, align 8
  %9 = tail call noundef zeroext i1 %8(ptr noundef nonnull align 8 dereferenceable(56) %5, ptr noundef nonnull align 8 dereferenceable(24) %1, ptr noundef nonnull align 8 dereferenceable(216) %2)
  ret i1 %9
}